target datalayout = "e-m:e-p270:32:32-p271:32:32-p272:64:64-i64:64-i128:128-f80:128-n8:16:32:64-S128"
target triple = "x86_64-pc-linux-gnu"

%struct.X509_algor_st = type { ptr, ptr }
%struct.asn1_string_st = type { i32, i32, ptr, i64 }
%struct.X509_acert_st = type { ptr, %struct.X509_algor_st, %struct.asn1_string_st }

; Function Attrs: nounwind uwtable
define void @X509_ACERT_get0_signature(ptr noundef %0, ptr noundef %1, ptr noundef %2) #0 {
  %4 = alloca ptr, align 8
  %5 = alloca ptr, align 8
  %6 = alloca ptr, align 8
  store ptr %0, ptr %4, align 8, !tbaa !12
  store ptr %1, ptr %5, align 8, !tbaa !31
  store ptr %2, ptr %6, align 8, !tbaa !29
  %7 = load ptr, ptr %5, align 8, !tbaa !31
  %8 = icmp ne ptr %7, null
  br i1 %8, label %9, label %13

9:                                                ; preds = %3
  %10 = load ptr, ptr %4, align 8, !tbaa !12
  %11 = getelementptr inbounds nuw %struct.X509_acert_st, ptr %10, i32 0, i32 2
  %12 = load ptr, ptr %5, align 8, !tbaa !31
  store ptr %11, ptr %12, align 8, !tbaa !37
  br label %13

13:                                               ; preds = %9, %3
  %14 = load ptr, ptr %6, align 8, !tbaa !29
  %15 = icmp ne ptr %14, null
  br i1 %15, label %16, label %20

16:                                               ; preds = %13
  %17 = load ptr, ptr %4, align 8, !tbaa !12
  %18 = getelementptr inbounds nuw %struct.X509_acert_st, ptr %17, i32 0, i32 1
  %19 = load ptr, ptr %6, align 8, !tbaa !29
  store ptr %18, ptr %19, align 8, !tbaa !35
  br label %20

20:                                               ; preds = %16, %13
  ret void
}